; Function Attrs: mustprogress uwtable
define internal fastcc void @_ZL21manifest_with_licenseN5vcpkg10StringViewE(ptr dead_on_unwind noalias nonnull writable align 8 initializes((0, 24)) %0, ptr %1, i64 %2) unnamed_addr #1 personality ptr @__gxx_personality_v0 {
  %4 = alloca %"struct.vcpkg::StringView", align 8
  %5 = alloca %"struct.vcpkg::Json::Value", align 8
  %6 = alloca %"class.std::__cxx11::basic_string", align 8
  store ptr %1, ptr %4, align 8
  %7 = getelementptr inbounds nuw i8, ptr %4, i64 8
  store i64 %2, ptr %7, align 8
  call void @llvm.lifetime.start.p0(i64 8, ptr nonnull %5) #22
  call void @llvm.lifetime.start.p0(i64 32, ptr nonnull %6) #22
  call void @_ZNK5vcpkg10StringView9to_stringB5cxx11Ev(ptr dead_on_unwind nonnull writable sret(%"class.std::__cxx11::basic_string") align 8 %6, ptr noundef nonnull align 8 dereferenceable(16) %4)
  call void @_ZN5vcpkg4Json5Value6stringEONSt7__cxx1112basic_stringIcSt11char_traitsIcESaIcEEE(ptr dead_on_unwind nonnull writable sret(%"struct.vcpkg::Json::Value") align 8 %5, ptr noundef nonnull align 8 dereferenceable(32) %6) #22
  invoke fastcc void @_ZL21manifest_with_licenseON5vcpkg4Json5ValueE(ptr dead_on_unwind noalias writable align 8 %0, ptr noundef nonnull align 8 dereferenceable(8) %5)
          to label %8 unwind label %17

8:                                                ; preds = %3
  call void @_ZN5vcpkg4Json5ValueD1Ev(ptr noundef nonnull align 8 dereferenceable(8) %5) #22
  %9 = load ptr, ptr %6, align 8, !tbaa !102
  %10 = getelementptr inbounds nuw i8, ptr %6, i64 16
  %11 = icmp eq ptr %9, %10
  br i1 %11, label %_ZNKSt7__cxx1112basic_stringIcSt11char_traitsIcESaIcEE11_M_is_localEv.exit.thread.i.i, label %_ZNKSt7__cxx1112basic_stringIcSt11char_traitsIcESaIcEE11_M_is_localEv.exit.i.i

_ZNKSt7__cxx1112basic_stringIcSt11char_traitsIcESaIcEE11_M_is_localEv.exit.thread.i.i: ; preds = %8
  %12 = getelementptr inbounds nuw i8, ptr %6, i64 8
  %13 = load i64, ptr %12, align 8, !tbaa !103
  %14 = icmp ult i64 %13, 16
  call void @llvm.assume(i1 %14)
  br label %_ZNSt7__cxx1112basic_stringIcSt11char_traitsIcESaIcEED2Ev.exit

_ZNKSt7__cxx1112basic_stringIcSt11char_traitsIcESaIcEE11_M_is_localEv.exit.i.i: ; preds = %8
  %15 = load i64, ptr %10, align 8, !tbaa !104
  %16 = add i64 %15, 1
  call void @_ZdlPvm(ptr noundef %9, i64 noundef %16) #24
  br label %_ZNSt7__cxx1112basic_stringIcSt11char_traitsIcESaIcEED2Ev.exit

_ZNSt7__cxx1112basic_stringIcSt11char_traitsIcESaIcEED2Ev.exit: ; preds = %_ZNKSt7__cxx1112basic_stringIcSt11char_traitsIcESaIcEE11_M_is_localEv.exit.thread.i.i, %_ZNKSt7__cxx1112basic_stringIcSt11char_traitsIcESaIcEE11_M_is_localEv.exit.i.i
  call void @llvm.lifetime.end.p0(i64 32, ptr nonnull %6) #22
  call void @llvm.lifetime.end.p0(i64 8, ptr nonnull %5) #22
  ret void

17:                                               ; preds = %3
  %18 = landingpad { ptr, i32 }
          cleanup
  call void @_ZN5vcpkg4Json5ValueD1Ev(ptr noundef nonnull align 8 dereferenceable(8) %5) #22
  %19 = load ptr, ptr %6, align 8, !tbaa !102
  %20 = getelementptr inbounds nuw i8, ptr %6, i64 16
  %21 = icmp eq ptr %19, %20
  br i1 %21, label %_ZNKSt7__cxx1112basic_stringIcSt11char_traitsIcESaIcEE11_M_is_localEv.exit.thread.i.i2, label %_ZNKSt7__cxx1112basic_stringIcSt11char_traitsIcESaIcEE11_M_is_localEv.exit.i.i1

_ZNKSt7__cxx1112basic_stringIcSt11char_traitsIcESaIcEE11_M_is_localEv.exit.thread.i.i2: ; preds = %17
  %22 = getelementptr inbounds nuw i8, ptr %6, i64 8
  %23 = load i64, ptr %22, align 8, !tbaa !103
  %24 = icmp ult i64 %23, 16
  call void @llvm.assume(i1 %24)
  br label %_ZNSt7__cxx1112basic_stringIcSt11char_traitsIcESaIcEED2Ev.exit3

_ZNKSt7__cxx1112basic_stringIcSt11char_traitsIcESaIcEE11_M_is_localEv.exit.i.i1: ; preds = %17
  %25 = load i64, ptr %20, align 8, !tbaa !104
  %26 = add i64 %25, 1
  call void @_ZdlPvm(ptr noundef %19, i64 noundef %26) #24
  br label %_ZNSt7__cxx1112basic_stringIcSt11char_traitsIcESaIcEED2Ev.exit3

_ZNSt7__cxx1112basic_stringIcSt11char_traitsIcESaIcEED2Ev.exit3: ; preds = %_ZNKSt7__cxx1112basic_stringIcSt11char_traitsIcESaIcEE11_M_is_localEv.exit.thread.i.i2, %_ZNKSt7__cxx1112basic_stringIcSt11char_traitsIcESaIcEE11_M_is_localEv.exit.i.i1
  call void @llvm.lifetime.end.p0(i64 32, ptr nonnull %6) #22
  call void @llvm.lifetime.end.p0(i64 8, ptr nonnull %5) #22
  resume { ptr, i32 } %18
}